; Function Attrs: nounwind uwtable
define internal range(i32 0, -2147483648) i32 @walsummary_read_callback(ptr noundef readonly captures(none) %0, ptr noundef captures(none) %1, i32 noundef %2) #3 {
  %4 = load i32, ptr %0, align 8
  %5 = sext i32 %2 to i64
  %6 = tail call i64 @read(i32 noundef %4, ptr noundef %1, i64 noundef %5) #11
  %7 = trunc i64 %6 to i32
  %8 = icmp slt i32 %7, 0
  br i1 %8, label %9, label %12

9:                                                ; preds = %3
  %10 = getelementptr inbounds nuw i8, ptr %0, i64 8
  %11 = load ptr, ptr %10, align 8
  tail call void (i32, i32, ptr, ...) @pg_log_generic(i32 noundef 4, i32 noundef 0, ptr noundef nonnull @.str.10, ptr noundef %11) #11
  tail call void @exit(i32 noundef 1) #12
  unreachable

12:                                               ; preds = %3
  ret i32 %7
}